 foswec_sfun

 Timestamp is 54ff469d (Tue Mar 10 13:31:41 2015)

 Preferred load address is 0000000180000000

 Start         Length     Name                   Class
 0001:00000000 0001f3a4H .text                   CODE
 0001:0001f3b0 00000092H .text$x                 CODE
 0002:00000000 000004b0H .idata$5                DATA
 0002:000004b0 00000008H .CRT$XCA                DATA
 0002:000004b8 00000008H .CRT$XCZ                DATA
 0002:000004c0 00000008H .CRT$XIA                DATA
 0002:000004c8 00000008H .CRT$XIAA               DATA
 0002:000004d0 00000008H .CRT$XIZ                DATA
 0002:000004e0 000006f4H .rdata                  DATA
 0002:00000bd8 00000008H .rtc$IAA                DATA
 0002:00000be0 00000008H .rtc$IZZ                DATA
 0002:00000be8 00000008H .rtc$TAA                DATA
 0002:00000bf0 00000008H .rtc$TZZ                DATA
 0002:00000bf8 00000a3cH .xdata                  DATA
 0002:00001634 0000008cH .idata$2                DATA
 0002:000016c0 00000014H .idata$3                DATA
 0002:000016d8 000004b0H .idata$4                DATA
 0002:00001b88 00000d14H .idata$6                DATA
 0002:000028a0 00000051H .edata                  DATA
 0003:00000000 00008c18H .data                   DATA
 0003:00008c20 000006e0H .bss                    DATA
 0004:00000000 00000bacH .pdata                  DATA

  Address         Publics by Value              Rva+Base               Lib:Object

 0000:00000000       ___safe_se_handler_table   0000000000000000     <absolute>
 0000:00000000       ___safe_se_handler_count   0000000000000000     <absolute>
 0000:00000000       __ImageBase                0000000180000000     <linker-defined>
 0001:00000000       foswec_initializer         0000000180001000 f   foswec_sfun.obj
 0001:00000010       foswec_terminator          0000000180001010 f   foswec_sfun.obj
 0001:00000020       sf_foswec_method_dispatcher 0000000180001020 f   foswec_sfun.obj
 0001:00000040       sf_foswec_uses_exported_functions 0000000180001040 f   foswec_sfun.obj
 0001:00000080       sf_foswec_process_testpoint_info_call 0000000180001080 f   foswec_sfun.obj
 0001:000001e0       sf_foswec_process_check_sum_call 00000001800011e0 f   foswec_sfun.obj
 0001:000005e0       sf_foswec_autoinheritance_info 00000001800015e0 f   foswec_sfun.obj
 0001:00000700       sf_foswec_get_eml_resolved_functions_info 0000000180001700 f   foswec_sfun.obj
 0001:000007e0       sf_foswec_third_party_uses_info 00000001800017e0 f   foswec_sfun.obj
 0001:00000900       sf_foswec_jit_fallback_info 0000000180001900 f   foswec_sfun.obj
 0001:00000a20       sf_foswec_updateBuildInfo_args_info 0000000180001a20 f   foswec_sfun.obj
 0001:00000b40       sf_foswec_get_post_codegen_info 0000000180001b40 f   foswec_sfun.obj
 0001:00000be0       foswec_debug_initialize    0000000180001be0 f   foswec_sfun.obj
 0001:00000c60       foswec_register_exported_symbols 0000000180001c60 f   foswec_sfun.obj
 0001:00000c70       load_foswec_optimization_info 0000000180001c70 f   foswec_sfun.obj
 0001:00000cc0       unload_foswec_optimization_info 0000000180001cc0 f   foswec_sfun.obj
 0001:00000cf0       sf_process_check_sum_call  0000000180001cf0 f   foswec_sfun_registry.obj
 0001:00000d60       sf_process_machine_uses_exported_functions_call 0000000180001d60 f   foswec_sfun_registry.obj
 0001:00000f00       sf_process_testpoint_info_call 0000000180001f00 f   foswec_sfun_registry.obj
 0001:00000f70       sf_process_autoinheritance_call 0000000180001f70 f   foswec_sfun_registry.obj
 0001:000011b0       sf_process_get_third_party_uses_info_call 00000001800021b0 f   foswec_sfun_registry.obj
 0001:000013f0       sf_process_get_jit_fallback_info_call 00000001800023f0 f   foswec_sfun_registry.obj
 0001:00001630       sf_process_get_updateBuildInfo_args_info_call 0000000180002630 f   foswec_sfun_registry.obj
 0001:00001870       sf_process_get_eml_resolved_functions_info_call 0000000180002870 f   foswec_sfun_registry.obj
 0001:00001a60       sf_process_get_post_codegen_info 0000000180002a60 f   foswec_sfun_registry.obj
 0001:00001c00       sf_mex_unlock_call         0000000180002c00 f   foswec_sfun_registry.obj
 0001:00001cb0       sf_machine_global_initializer_called 0000000180002cb0 f   foswec_sfun_registry.obj
 0001:00001ce0       sf_machine_global_method_dispatcher 0000000180002ce0 f   foswec_sfun_registry.obj
 0001:00001d80       sf_machine_global_terminator 0000000180002d80 f   foswec_sfun_registry.obj
 0001:00001dd0       sf_register_machine_exported_symbols 0000000180002dd0 f   foswec_sfun_registry.obj
 0001:00001e00       callCustomFcn              0000000180002e00 f   foswec_sfun_registry.obj
 0001:00001e10       sf_machine_global_initializer 0000000180002e10 f   foswec_sfun_registry.obj
 0001:00001ea0       mdlGetSimState             0000000180002ea0 f   foswec_sfun_registry.obj
 0001:00001f20       mdlSetSimState             0000000180002f20 f   foswec_sfun_registry.obj
 0001:00001f60       _ssSetStateAbsTol          0000000180002f60 f   foswec_sfun_registry.obj
 0001:00002040       _ssGetAbsTol               0000000180003040 f   foswec_sfun_registry.obj
 0001:000020b0       _ssSetInputPortMatrixDimensions 00000001800030b0 f   foswec_sfun_registry.obj
 0001:000021c0       _ssSetOutputPortMatrixDimensions 00000001800031c0 f   foswec_sfun_registry.obj
 0001:000022d0       _ssSetInputPortVectorDimension 00000001800032d0 f   foswec_sfun_registry.obj
 0001:000023a0       _ssSetOutputPortVectorDimension 00000001800033a0 f   foswec_sfun_registry.obj
 0001:00002470       ssIsRunTimeParamTunable    0000000180003470 f   foswec_sfun_registry.obj
 0001:000024e0       ssGetSFuncBlockHandle      00000001800034e0 f   foswec_sfun_registry.obj
 0001:00002550       _ssGetCurrentInputPortWidth 0000000180003550 f   foswec_sfun_registry.obj
 0001:00002670       _ssGetCurrentOutputPortWidth 0000000180003670 f   foswec_sfun_registry.obj
 0001:00002790       _ssGetCallSystemNumFcnCallDestinations 0000000180003790 f   foswec_sfun_registry.obj
 0001:00002800       ssWarning                  0000000180003800 f   foswec_sfun_registry.obj
 0001:00002910       ssGetIsZeroCrossControlDisabled 0000000180003910 f   foswec_sfun_registry.obj
 0001:00002980       ssSetIsInputPortUsedForContZcSignal 0000000180003980 f   foswec_sfun_registry.obj
 0001:000029f0       ssSetZcSignalIsZcElementDisc 00000001800039f0 f   foswec_sfun_registry.obj
 0001:00002aa0       ssSetZcSignalName          0000000180003aa0 f   foswec_sfun_registry.obj
 0001:00002b10       ssSetZcSignalWidth         0000000180003b10 f   foswec_sfun_registry.obj
 0001:00002b80       ssSetZcSignalZcEventType   0000000180003b80 f   foswec_sfun_registry.obj
 0001:00002bf0       ssSetZcSignalType          0000000180003bf0 f   foswec_sfun_registry.obj
 0001:00002c60       ssSetZcSignalZcTol         0000000180003c60 f   foswec_sfun_registry.obj
 0001:00002cd0       ssSetZcSignalNeedsEventNotification 0000000180003cd0 f   foswec_sfun_registry.obj
 0001:00002d40       ssCreateAndAddZcSignalInfo 0000000180003d40 f   foswec_sfun_registry.obj
 0001:00002db0       ssCloneAndAddZcSignalInfo  0000000180003db0 f   foswec_sfun_registry.obj
 0001:00002e20       ssGetNumZcSignals          0000000180003e20 f   foswec_sfun_registry.obj
 0001:00002e90       ssGetZcSignalVector        0000000180003e90 f   foswec_sfun_registry.obj
 0001:00002f00       ssGetZcSignalZcEvents      0000000180003f00 f   foswec_sfun_registry.obj
 0001:00002f70       ssGetZcSignalName          0000000180003f70 f   foswec_sfun_registry.obj
 0001:00002fe0       ssGetZcSignalWidth         0000000180003fe0 f   foswec_sfun_registry.obj
 0001:00003050       ssGetZcSignalZcEventType   0000000180004050 f   foswec_sfun_registry.obj
 0001:000030c0       ssGetZcSignalType          00000001800040c0 f   foswec_sfun_registry.obj
 0001:00003130       ssGetZcSignalZcTol         0000000180004130 f   foswec_sfun_registry.obj
 0001:000031b0       ssGetZcSignalNeedsEventNotification 00000001800041b0 f   foswec_sfun_registry.obj
 0001:00003220       ssGetZcSignalIsZcElementDisc 0000000180004220 f   foswec_sfun_registry.obj
 0001:000032c0       ssGetIsInputPortElementContinuous 00000001800042c0 f   foswec_sfun_registry.obj
 0001:00003360       _ssGetInputPortSignalPtrsFcn 0000000180004360 f   foswec_sfun_registry.obj
 0001:00003620       _ssGetInputPortSignalFcn   0000000180004620 f   foswec_sfun_registry.obj
 0001:00003840       _ssSetInputPortDirectFeedThroughFcn 0000000180004840 f   foswec_sfun_registry.obj
 0001:000039a0       _ssSetInputPortReusableFcn 00000001800049a0 f   foswec_sfun_registry.obj
 0001:00003a90       _ssSetOutputPortReusableFcn 0000000180004a90 f   foswec_sfun_registry.obj
 0001:00003b70       ssGetDTypeIdFromMxArray    0000000180004b70 f   foswec_sfun_registry.obj
 0001:00003c90       ssWriteRTWStr              0000000180004c90 f   foswec_sfun_registry.obj
 0001:00003cf0       ssWriteRTWMxVectParam      0000000180004cf0 f   foswec_sfun_registry.obj
 0001:00003d50       ssWriteRTWMx2dMatParam     0000000180004d50 f   foswec_sfun_registry.obj
 0001:00003dd0       ssWriteRTWNameValuePair    0000000180004dd0 f   foswec_sfun_registry.obj
 0001:000042c0       ssWriteRTWParameters       00000001800052c0 f   foswec_sfun_registry.obj
 0001:000048c0       ssWriteRTWParamSettings    00000001800058c0 f   foswec_sfun_registry.obj
 0001:00004f90       ssWriteRTWWorkVect         0000000180005f90 f   foswec_sfun_registry.obj
 0001:00005490       mexFunction                0000000180006490 f   foswec_sfun_registry.obj
 0001:000079e0       ProcessMexSfunctionEveryCall 00000001800089e0 f   foswec_sfun_registry.obj
 0001:00007b62       sf_debug_set_machine_data_thresholds 0000000180008b62 f   sf_runtime:sf_runtime.dll
 0001:00007b68       sf_debug_set_machine_event_thresholds 0000000180008b68 f   sf_runtime:sf_runtime.dll
 0001:00007b6e       sf_debug_initialize_machine 0000000180008b6e f   sf_runtime:sf_runtime.dll
 0001:00007b74       sf_load_rtw_optimization_info 0000000180008b74 f   sf_runtime:sf_runtime.dll
 0001:00007b7a       sf_debug_terminate         0000000180008b7a f   sf_runtime:sf_runtime.dll
 0001:00007b80       sf_debug_create_debug_instance_struct 0000000180008b80 f   sf_runtime:sf_runtime.dll
 0001:00007b86       sim_mode_is_rtw_gen        0000000180008b86 f   sf_runtime:sf_runtime.dll
 0001:00007b8c       sf_debug_api               0000000180008b8c f   sf_runtime:sf_runtime.dll
 0001:00007b92       callMdlMethodAndReportError 0000000180008b92 f   sf_runtime:sf_runtime.dll
 0001:00007b98       call_sf_machine_global_method_dispatcher 0000000180008b98 f   sf_runtime:sf_runtime.dll
 0001:00007b9e       sf_clear_error_manager_info 0000000180008b9e f   sf_runtime:sf_runtime.dll
 0001:00007ba4       sf_mex_error_direct_call   0000000180008ba4 f   sf_runtime:sf_runtime.dll
 0001:00007baa       mxCreateLogicalScalar      0000000180008baa f   libmx:libmx.dll
 0001:00007bb0       mxCreateDoubleMatrix_730   0000000180008bb0 f   libmx:libmx.dll
 0001:00007bb6       mxGetScalar                0000000180008bb6 f   libmx:libmx.dll
 0001:00007bbc       mxGetString_730            0000000180008bbc f   libmx:libmx.dll
 0001:00007bc2       mxIsChar                   0000000180008bc2 f   libmx:libmx.dll
 0001:00007bc8       mxGetPr                    0000000180008bc8 f   libmx:libmx.dll
 0001:00007bce       mxDestroyArray             0000000180008bce f   libmx:libmx.dll
 0001:00007bd4       mxCreateString             0000000180008bd4 f   libmx:libmx.dll
 0001:00007bda       mxGetClassID               0000000180008bda f   libmx:libmx.dll
 0001:00007be0       mxIsNumeric                0000000180008be0 f   libmx:libmx.dll
 0001:00007be6       mxIsComplex                0000000180008be6 f   libmx:libmx.dll
 0001:00007bec       mxGetN                     0000000180008bec f   libmx:libmx.dll
 0001:00007bf2       mxGetM                     0000000180008bf2 f   libmx:libmx.dll
 0001:00007bf8       mxCalloc                   0000000180008bf8 f   libmx:libmx.dll
 0001:00007bfe       mexMakeArrayPersistent     0000000180008bfe f   libmex:libmex.dll
 0001:00007c04       mexUnlock                  0000000180008c04 f   libmex:libmex.dll
 0001:00007c0a       mexIsLocked                0000000180008c0a f   libmex:libmex.dll
 0001:00007c10       mexWarnMsgTxt              0000000180008c10 f   libmex:libmex.dll
 0001:00007c16       mexCallMATLABWithObject    0000000180008c16 f   libmex:libmex.dll
 0001:00007c1c       mexErrMsgTxt               0000000180008c1c f   libmex:libmex.dll
 0001:00007c22       mexLock                    0000000180008c22 f   libmex:libmex.dll
 0001:00007c30       WECSim_Lib_initializer     0000000180008c30 f   WECSim_Lib_sfun:WECSim_Lib_sfun.obj
 0001:00007c40       WECSim_Lib_terminator      0000000180008c40 f   WECSim_Lib_sfun:WECSim_Lib_sfun.obj
 0001:00007c50       sf_WECSim_Lib_method_dispatcher 0000000180008c50 f   WECSim_Lib_sfun:WECSim_Lib_sfun.obj
 0001:00007cc0       sf_WECSim_Lib_uses_exported_functions 0000000180008cc0 f   WECSim_Lib_sfun:WECSim_Lib_sfun.obj
 0001:00007d00       sf_WECSim_Lib_process_testpoint_info_call 0000000180008d00 f   WECSim_Lib_sfun:WECSim_Lib_sfun.obj
 0001:00007e60       sf_WECSim_Lib_process_check_sum_call 0000000180008e60 f   WECSim_Lib_sfun:WECSim_Lib_sfun.obj
 0001:00008140       sf_WECSim_Lib_autoinheritance_info 0000000180009140 f   WECSim_Lib_sfun:WECSim_Lib_sfun.obj
 0001:00008300       sf_WECSim_Lib_get_eml_resolved_functions_info 0000000180009300 f   WECSim_Lib_sfun:WECSim_Lib_sfun.obj
 0001:00008470       sf_WECSim_Lib_third_party_uses_info 0000000180009470 f   WECSim_Lib_sfun:WECSim_Lib_sfun.obj
 0001:000085f0       sf_WECSim_Lib_jit_fallback_info 00000001800095f0 f   WECSim_Lib_sfun:WECSim_Lib_sfun.obj
 0001:00008770       sf_WECSim_Lib_updateBuildInfo_args_info 0000000180009770 f   WECSim_Lib_sfun:WECSim_Lib_sfun.obj
 0001:000088f0       sf_WECSim_Lib_get_post_codegen_info 00000001800098f0 f   WECSim_Lib_sfun:WECSim_Lib_sfun.obj
 0001:000089f0       WECSim_Lib_debug_initialize 00000001800099f0 f   WECSim_Lib_sfun:WECSim_Lib_sfun.obj
 0001:00008a80       WECSim_Lib_register_exported_symbols 0000000180009a80 f   WECSim_Lib_sfun:WECSim_Lib_sfun.obj
 0001:00008a90       load_WECSim_Lib_optimization_info 0000000180009a90 f   WECSim_Lib_sfun:WECSim_Lib_sfun.obj
 0001:00008ae0       unload_WECSim_Lib_optimization_info 0000000180009ae0 f   WECSim_Lib_sfun:WECSim_Lib_sfun.obj
 0001:00008b10       sf_c8_WECSim_Lib_get_eml_resolved_functions_info 0000000180009b10 f   WECSim_Lib_sfun:c8_WECSim_Lib.obj
 0001:0000bd20       sf_c8_WECSim_Lib_get_check_sum 000000018000cd20 f   WECSim_Lib_sfun:c8_WECSim_Lib.obj
 0001:0000bda0       sf_c8_WECSim_Lib_get_autoinheritance_info 000000018000cda0 f   WECSim_Lib_sfun:c8_WECSim_Lib.obj
 0001:0000c200       sf_c8_WECSim_Lib_third_party_uses_info 000000018000d200 f   WECSim_Lib_sfun:c8_WECSim_Lib.obj
 0001:0000c230       sf_c8_WECSim_Lib_jit_fallback_info 000000018000d230 f   WECSim_Lib_sfun:c8_WECSim_Lib.obj
 0001:0000c300       sf_c8_WECSim_Lib_updateBuildInfo_args_info 000000018000d300 f   WECSim_Lib_sfun:c8_WECSim_Lib.obj
 0001:0000c330       sf_c8_WECSim_Lib_get_post_codegen_info 000000018000d330 f   WECSim_Lib_sfun:c8_WECSim_Lib.obj
 0001:0000c400       c8_WECSim_Lib_method_dispatcher 000000018000d400 f   WECSim_Lib_sfun:c8_WECSim_Lib.obj
 0001:0000f000       sf_c3_WECSim_Lib_get_eml_resolved_functions_info 0000000180010000 f   WECSim_Lib_sfun:c3_WECSim_Lib.obj
 0001:00016e00       sf_c3_WECSim_Lib_get_check_sum 0000000180017e00 f   WECSim_Lib_sfun:c3_WECSim_Lib.obj
 0001:00016e80       sf_c3_WECSim_Lib_get_autoinheritance_info 0000000180017e80 f   WECSim_Lib_sfun:c3_WECSim_Lib.obj
 0001:00017810       sf_c3_WECSim_Lib_third_party_uses_info 0000000180018810 f   WECSim_Lib_sfun:c3_WECSim_Lib.obj
 0001:00017840       sf_c3_WECSim_Lib_jit_fallback_info 0000000180018840 f   WECSim_Lib_sfun:c3_WECSim_Lib.obj
 0001:00017910       sf_c3_WECSim_Lib_updateBuildInfo_args_info 0000000180018910 f   WECSim_Lib_sfun:c3_WECSim_Lib.obj
 0001:00017940       sf_c3_WECSim_Lib_get_post_codegen_info 0000000180018940 f   WECSim_Lib_sfun:c3_WECSim_Lib.obj
 0001:00017a10       c3_WECSim_Lib_method_dispatcher 0000000180018a10 f   WECSim_Lib_sfun:c3_WECSim_Lib.obj
 0001:0001e77c       __GSHandlerCheckCommon     000000018001f77c f   MSVCRT:gshandler.obj
 0001:0001e7e0       __GSHandlerCheck           000000018001f7e0 f   MSVCRT:gshandler.obj
 0001:0001e7fe       strcmp                     000000018001f7fe f   MSVCRT:MSVCR100.dll
 0001:0001e820       __security_check_cookie    000000018001f820 f   MSVCRT:amdsecgs.obj
 0001:0001e840       free                       000000018001f840 f   MSVCRT:MSVCR100.dll
 0001:0001e846       sprintf                    000000018001f846 f   MSVCRT:MSVCR100.dll
 0001:0001e84c       malloc                     000000018001f84c f   MSVCRT:MSVCR100.dll
 0001:0001e852       strlen                     000000018001f852 f   MSVCRT:MSVCR100.dll
 0001:0001e858       strcat                     000000018001f858 f   MSVCRT:MSVCR100.dll
 0001:0001e85e       memcpy                     000000018001f85e f   MSVCRT:MSVCR100.dll
 0001:0001e864       NtCurrentTeb               000000018001f864 f i MSVCRT:crtdll.obj
 0001:0001e8d0       _CRT_INIT                  000000018001f8d0 f   MSVCRT:crtdll.obj
 0001:0001ec68       _DllMainCRTStartup         000000018001fc68 f   MSVCRT:crtdll.obj
 0001:0001eca6       memset                     000000018001fca6 f   MSVCRT:MSVCR100.dll
 0001:0001ecc0       __chkstk                   000000018001fcc0 f   MSVCRT:chkstk.obj
 0001:0001ecc0       _alloca_probe              000000018001fcc0     MSVCRT:chkstk.obj
 0001:0001ed10       __report_gsfailure         000000018001fd10 f   MSVCRT:gs_report.obj
 0001:0001ee5c       __clean_type_info_names    000000018001fe5c f   MSVCRT:tncleanup.obj
 0001:0001ee68       _onexit                    000000018001fe68 f   MSVCRT:atonexit.obj
 0001:0001ef18       atexit                     000000018001ff18 f   MSVCRT:atonexit.obj
 0001:0001ef30       _RTC_Initialize            000000018001ff30 f   MSVCRT:_initsect_.obj
 0001:0001ef68       _RTC_Terminate             000000018001ff68 f   MSVCRT:_initsect_.obj
 0001:0001efa0       _malloc_crt                000000018001ffa0 f   MSVCRT:MSVCR100.dll
 0001:0001efb0       _ValidateImageBase         000000018001ffb0 f   MSVCRT:pesect.obj
 0001:0001efe0       _FindPESection             000000018001ffe0 f   MSVCRT:pesect.obj
 0001:0001f030       _IsNonwritableInCurrentImage 0000000180020030 f   MSVCRT:pesect.obj
 0001:0001f072       _initterm                  0000000180020072 f   MSVCRT:MSVCR100.dll
 0001:0001f078       _initterm_e                0000000180020078 f   MSVCRT:MSVCR100.dll
 0001:0001f07e       _encoded_null              000000018002007e f   MSVCRT:MSVCR100.dll
 0001:0001f084       _amsg_exit                 0000000180020084 f   MSVCRT:MSVCR100.dll
 0001:0001f08a       __C_specific_handler       000000018002008a f   MSVCRT:MSVCR100.dll
 0001:0001f090       __CppXcptFilter            0000000180020090 f   MSVCRT:MSVCR100.dll
 0001:0001f098       DllMain                    0000000180020098 f   MSVCRT:dllmain.obj
 0001:0001f0bc       __security_init_cookie     00000001800200bc f   MSVCRT:gs_support.obj
 0001:0001f170       __crt_debugger_hook        0000000180020170 f   MSVCRT:MSVCR100.dll
 0001:0001f176       __clean_type_info_names_internal 0000000180020176 f   MSVCRT:MSVCR100.dll
 0001:0001f17c       _unlock                    000000018002017c f   MSVCRT:MSVCR100.dll
 0001:0001f182       __dllonexit                0000000180020182 f   MSVCRT:MSVCR100.dll
 0001:0001f188       _lock                      0000000180020188 f   MSVCRT:MSVCR100.dll
 0001:0001f18e       EncodePointer              000000018002018e f   kernel32:KERNEL32.dll
 0001:0001f194       DecodePointer              0000000180020194 f   kernel32:KERNEL32.dll
 0001:0001f19a       Sleep                      000000018002019a f   kernel32:KERNEL32.dll
 0001:0001f1a0       TerminateProcess           00000001800201a0 f   kernel32:KERNEL32.dll
 0001:0001f1a6       GetCurrentProcess          00000001800201a6 f   kernel32:KERNEL32.dll
 0001:0001f1ac       UnhandledExceptionFilter   00000001800201ac f   kernel32:KERNEL32.dll
 0001:0001f1b2       SetUnhandledExceptionFilter 00000001800201b2 f   kernel32:KERNEL32.dll
 0001:0001f1b8       IsDebuggerPresent          00000001800201b8 f   kernel32:KERNEL32.dll
 0001:0001f1be       RtlVirtualUnwind           00000001800201be f   kernel32:KERNEL32.dll
 0001:0001f1c4       RtlLookupFunctionEntry     00000001800201c4 f   kernel32:KERNEL32.dll
 0001:0001f1ca       RtlCaptureContext          00000001800201ca f   kernel32:KERNEL32.dll
 0001:0001f1d0       DisableThreadLibraryCalls  00000001800201d0 f   kernel32:KERNEL32.dll
 0001:0001f1d6       QueryPerformanceCounter    00000001800201d6 f   kernel32:KERNEL32.dll
 0001:0001f1dc       GetTickCount               00000001800201dc f   kernel32:KERNEL32.dll
 0001:0001f1e2       GetCurrentThreadId         00000001800201e2 f   kernel32:KERNEL32.dll
 0001:0001f1e8       GetCurrentProcessId        00000001800201e8 f   kernel32:KERNEL32.dll
 0001:0001f1ee       GetSystemTimeAsFileTime    00000001800201ee f   kernel32:KERNEL32.dll
 0001:0001f1f4       sf_mex_emlrtNameCapturePostProcessR2012a 00000001800201f4 f   sf_runtime:sf_runtime.dll
 0001:0001f1fa       sf_mex_assign              00000001800201fa f   sf_runtime:sf_runtime.dll
 0001:0001f200       sf_mex_createstruct        0000000180020200 f   sf_runtime:sf_runtime.dll
 0001:0001f206       sf_mex_destroy             0000000180020206 f   sf_runtime:sf_runtime.dll
 0001:0001f20c       sf_mex_duplicatearraysafe  000000018002020c f   sf_runtime:sf_runtime.dll
 0001:0001f212       sf_mex_createcellmatrix    0000000180020212 f   sf_runtime:sf_runtime.dll
 0001:0001f218       sf_mex_addfield            0000000180020218 f   sf_runtime:sf_runtime.dll
 0001:0001f21e       sf_mex_create              000000018002021e f   sf_runtime:sf_runtime.dll
 0001:0001f224       sf_mex_error_message       0000000180020224 f   sf_runtime:sf_runtime.dll
 0001:0001f22a       sf_set_rtw_dwork_info      000000018002022a f   sf_runtime:sf_runtime.dll
 0001:0001f230       sf_mark_chart_reusable_outputs 0000000180020230 f   sf_runtime:sf_runtime.dll
 0001:0001f236       sf_mark_chart_expressionable_inputs 0000000180020236 f   sf_runtime:sf_runtime.dll
 0001:0001f23c       sf_update_buildInfo        000000018002023c f   sf_runtime:sf_runtime.dll
 0001:0001f242       sf_rtw_info_uint_prop      0000000180020242 f   sf_runtime:sf_runtime.dll
 0001:0001f248       sf_is_chart_inlinable      0000000180020248 f   sf_runtime:sf_runtime.dll
 0001:0001f24e       sim_mode_is_external       000000018002024e f   sf_runtime:sf_runtime.dll
 0001:0001f254       ssGetOutputPortSignal_wrapper 0000000180020254 f   sf_runtime:sf_runtime.dll
 0001:0001f25a       ssGetInputPortSignal_wrapper 000000018002025a f   sf_runtime:sf_runtime.dll
 0001:0001f260       sf_mex_decode_encoded_mx_struct_array 0000000180020260 f   sf_runtime:sf_runtime.dll
 0001:0001f266       sf_debug_reset_current_state_configuration 0000000180020266 f   sf_runtime:sf_runtime.dll
 0001:0001f26c       sf_debug_set_instance_data_value_ptr 000000018002026c f   sf_runtime:sf_runtime.dll
 0001:0001f272       sf_debug_set_chart_data_compiled_props 0000000180020272 f   sf_runtime:sf_runtime.dll
 0001:0001f278       cv_eml_init_fcn            0000000180020278 f   sf_runtime:sf_runtime.dll
 0001:0001f27e       cv_eml_init_script         000000018002027e f   sf_runtime:sf_runtime.dll
 0001:0001f284       sf_debug_cv_init_trans     0000000180020284 f   sf_runtime:sf_runtime.dll
 0001:0001f28a       sf_debug_cv_init_state     000000018002028a f   sf_runtime:sf_runtime.dll
 0001:0001f290       sf_debug_cv_init_chart     0000000180020290 f   sf_runtime:sf_runtime.dll
 0001:0001f296       sf_debug_set_chart_decomposition 0000000180020296 f   sf_runtime:sf_runtime.dll
 0001:0001f29c       sf_debug_set_chart_substate_count 000000018002029c f   sf_runtime:sf_runtime.dll
 0001:0001f2a2       sf_debug_set_chart_state_info 00000001800202a2 f   sf_runtime:sf_runtime.dll
 0001:0001f2a8       sf_debug_set_chart_data_props 00000001800202a8 f   sf_runtime:sf_runtime.dll
 0001:0001f2ae       sf_debug_set_chart_event_thresholds 00000001800202ae f   sf_runtime:sf_runtime.dll
 0001:0001f2b4       sf_debug_set_chart_disable_implicit_casting 00000001800202b4 f   sf_runtime:sf_runtime.dll
 0001:0001f2ba       sf_debug_initialize_chart  00000001800202ba f   sf_runtime:sf_runtime.dll
 0001:0001f2c0       sf_mex_dup                 00000001800202c0 f   sf_runtime:sf_runtime.dll
 0001:0001f2c6       sf_mex_import              00000001800202c6 f   sf_runtime:sf_runtime.dll
 0001:0001f2cc       sf_get_time                00000001800202cc f   sf_runtime:sf_runtime.dll
 0001:0001f2d2       sf_debug_check_for_state_inconsistency 00000001800202d2 f   sf_runtime:sf_runtime.dll
 0001:0001f2d8       sf_debug_symbol_scope_pop  00000001800202d8 f   sf_runtime:sf_runtime.dll
 0001:0001f2de       eml_debug_line_call        00000001800202de f   sf_runtime:sf_runtime.dll
 0001:0001f2e4       cv_eml_eval                00000001800202e4 f   sf_runtime:sf_runtime.dll
 0001:0001f2ea       sf_debug_symbol_scope_add_eml 00000001800202ea f   sf_runtime:sf_runtime.dll
 0001:0001f2f0       sf_debug_symbol_scope_add_eml_importable 00000001800202f0 f   sf_runtime:sf_runtime.dll
 0001:0001f2f6       sf_debug_symbol_scope_push_eml 00000001800202f6 f   sf_runtime:sf_runtime.dll
 0001:0001f2fc       sf_debug_data_range_wrapper 00000001800202fc f   sf_runtime:sf_runtime.dll
 0001:0001f302       sf_debug_call              0000000180020302 f   sf_runtime:sf_runtime.dll
 0001:0001f308       sf_debug_symbol_scope_push 0000000180020308 f   sf_runtime:sf_runtime.dll
 0001:0001f30e       sf_mex_call_debug          000000018002030e f   sf_runtime:sf_runtime.dll
 0001:0001f314       sf_mex_setcell             0000000180020314 f   sf_runtime:sf_runtime.dll
 0001:0001f31a       sf_mex_getcell             000000018002031a f   sf_runtime:sf_runtime.dll
 0001:0001f320       sf_clear_rtw_identifier    0000000180020320 f   sf_runtime:sf_runtime.dll
 0001:0001f326       cv_eml_init_relational     0000000180020326 f   sf_runtime:sf_runtime.dll
 0001:0001f32c       cv_eml_init_for            000000018002032c f   sf_runtime:sf_runtime.dll
 0001:0001f332       cv_eml_init_if             0000000180020332 f   sf_runtime:sf_runtime.dll
 0001:0001f338       sf_mex_listen_for_ctrl_c   0000000180020338 f   sf_runtime:sf_runtime.dll
 0001:0001f33e       sf_debug_eml_data_array_bounds_error_check 000000018002033e f   sf_runtime:sf_runtime.dll
 0001:0001f344       sf_debug_integer_check     0000000180020344 f   sf_runtime:sf_runtime.dll
 0001:0001f34a       cv_eval_relational         000000018002034a f   sf_runtime:sf_runtime.dll
 0001:0001f350       mxDuplicateArray           0000000180020350 f   libmx:libmx.dll
 0001:0001f356       mxCreateDoubleScalar       0000000180020356 f   libmx:libmx.dll
 0001:0001f35c       mxSetField_730             000000018002035c f   libmx:libmx.dll
 0001:0001f362       mxCreateStructMatrix_730   0000000180020362 f   libmx:libmx.dll
 0001:0001f368       mxCreateCellMatrix_730     0000000180020368 f   libmx:libmx.dll
 0001:0001f36e       mxCreateCellArray_730      000000018002036e f   libmx:libmx.dll
 0001:0001f374       mxCreateStructArray_730    0000000180020374 f   libmx:libmx.dll
 0001:0001f37a       mxIsEmpty                  000000018002037a f   libmx:libmx.dll
 0001:0001f380       utMalloc                   0000000180020380 f   libut:libut.dll
 0001:0001f386       utFree                     0000000180020386 f   libut:libut.dll
 0001:0001f38c       muDoubleScalarAsin         000000018002038c f   libmwmathutil:libmwmathutil.dll
 0001:0001f392       muDoubleScalarAtan2        0000000180020392 f   libmwmathutil:libmwmathutil.dll
 0001:0001f398       muDoubleScalarAbs          0000000180020398 f   libmwmathutil:libmwmathutil.dll
 0001:0001f39e       muDoubleScalarFloor        000000018002039e f   libmwmathutil:libmwmathutil.dll
 0002:00000000       __imp_DecodePointer        0000000180021000     kernel32:KERNEL32.dll
 0002:00000008       __imp_Sleep                0000000180021008     kernel32:KERNEL32.dll
 0002:00000010       __imp_TerminateProcess     0000000180021010     kernel32:KERNEL32.dll
 0002:00000018       __imp_GetCurrentProcess    0000000180021018     kernel32:KERNEL32.dll
 0002:00000020       __imp_UnhandledExceptionFilter 0000000180021020     kernel32:KERNEL32.dll
 0002:00000028       __imp_GetSystemTimeAsFileTime 0000000180021028     kernel32:KERNEL32.dll
 0002:00000030       __imp_GetCurrentProcessId  0000000180021030     kernel32:KERNEL32.dll
 0002:00000038       __imp_GetCurrentThreadId   0000000180021038     kernel32:KERNEL32.dll
 0002:00000040       __imp_GetTickCount         0000000180021040     kernel32:KERNEL32.dll
 0002:00000048       __imp_QueryPerformanceCounter 0000000180021048     kernel32:KERNEL32.dll
 0002:00000050       __imp_DisableThreadLibraryCalls 0000000180021050     kernel32:KERNEL32.dll
 0002:00000058       __imp_RtlCaptureContext    0000000180021058     kernel32:KERNEL32.dll
 0002:00000060       __imp_RtlLookupFunctionEntry 0000000180021060     kernel32:KERNEL32.dll
 0002:00000068       __imp_RtlVirtualUnwind     0000000180021068     kernel32:KERNEL32.dll
 0002:00000070       __imp_IsDebuggerPresent    0000000180021070     kernel32:KERNEL32.dll
 0002:00000078       __imp_SetUnhandledExceptionFilter 0000000180021078     kernel32:KERNEL32.dll
 0002:00000080       __imp_EncodePointer        0000000180021080     kernel32:KERNEL32.dll
 0002:00000088       \177KERNEL32_NULL_THUNK_DATA 0000000180021088     kernel32:KERNEL32.dll
 0002:00000090       __imp___C_specific_handler 0000000180021090     MSVCRT:MSVCR100.dll
 0002:00000098       __imp___CppXcptFilter      0000000180021098     MSVCRT:MSVCR100.dll
 0002:000000a0       __imp__amsg_exit           00000001800210a0     MSVCRT:MSVCR100.dll
 0002:000000a8       __imp__encoded_null        00000001800210a8     MSVCRT:MSVCR100.dll
 0002:000000b0       __imp__onexit              00000001800210b0     MSVCRT:MSVCR100.dll
 0002:000000b8       __imp__lock                00000001800210b8     MSVCRT:MSVCR100.dll
 0002:000000c0       __imp___dllonexit          00000001800210c0     MSVCRT:MSVCR100.dll
 0002:000000c8       __imp__unlock              00000001800210c8     MSVCRT:MSVCR100.dll
 0002:000000d0       __imp___clean_type_info_names_internal 00000001800210d0     MSVCRT:MSVCR100.dll
 0002:000000d8       __imp__initterm_e          00000001800210d8     MSVCRT:MSVCR100.dll
 0002:000000e0       __imp__initterm            00000001800210e0     MSVCRT:MSVCR100.dll
 0002:000000e8       __imp__malloc_crt          00000001800210e8     MSVCRT:MSVCR100.dll
 0002:000000f0       __imp_memset               00000001800210f0     MSVCRT:MSVCR100.dll
 0002:000000f8       __imp_memcpy               00000001800210f8     MSVCRT:MSVCR100.dll
 0002:00000100       __imp_strcat               0000000180021100     MSVCRT:MSVCR100.dll
 0002:00000108       __imp_strlen               0000000180021108     MSVCRT:MSVCR100.dll
 0002:00000110       __imp_malloc               0000000180021110     MSVCRT:MSVCR100.dll
 0002:00000118       __imp_strcmp               0000000180021118     MSVCRT:MSVCR100.dll
 0002:00000120       __imp_free                 0000000180021120     MSVCRT:MSVCR100.dll
 0002:00000128       __imp_sprintf              0000000180021128     MSVCRT:MSVCR100.dll
 0002:00000130       __imp___crt_debugger_hook  0000000180021130     MSVCRT:MSVCR100.dll
 0002:00000138       \177MSVCR100_NULL_THUNK_DATA 0000000180021138     MSVCRT:MSVCR100.dll
 0002:00000140       __imp_mexLock              0000000180021140     libmex:libmex.dll
 0002:00000148       __imp_mexErrMsgTxt         0000000180021148     libmex:libmex.dll
 0002:00000150       __imp_mexCallMATLABWithObject 0000000180021150     libmex:libmex.dll
 0002:00000158       __imp_mexWarnMsgTxt        0000000180021158     libmex:libmex.dll
 0002:00000160       __imp_mexIsLocked          0000000180021160     libmex:libmex.dll
 0002:00000168       __imp_mexUnlock            0000000180021168     libmex:libmex.dll
 0002:00000170       __imp_mexMakeArrayPersistent 0000000180021170     libmex:libmex.dll
 0002:00000178       \177libmex_NULL_THUNK_DATA 0000000180021178     libmex:libmex.dll
 0002:00000180       __imp_muDoubleScalarAtan2  0000000180021180     libmwmathutil:libmwmathutil.dll
 0002:00000188       __imp_muDoubleScalarAbs    0000000180021188     libmwmathutil:libmwmathutil.dll
 0002:00000190       __imp_muDoubleScalarFloor  0000000180021190     libmwmathutil:libmwmathutil.dll
 0002:00000198       __imp_muDoubleScalarAsin   0000000180021198     libmwmathutil:libmwmathutil.dll
 0002:000001a0       \177libmwmathutil_NULL_THUNK_DATA 00000001800211a0     libmwmathutil:libmwmathutil.dll
 0002:000001a8       __imp_mxCalloc             00000001800211a8     libmx:libmx.dll
 0002:000001b0       __imp_mxGetM               00000001800211b0     libmx:libmx.dll
 0002:000001b8       __imp_mxGetN               00000001800211b8     libmx:libmx.dll
 0002:000001c0       __imp_mxIsComplex          00000001800211c0     libmx:libmx.dll
 0002:000001c8       __imp_mxIsNumeric          00000001800211c8     libmx:libmx.dll
 0002:000001d0       __imp_mxGetClassID         00000001800211d0     libmx:libmx.dll
 0002:000001d8       __imp_mxCreateString       00000001800211d8     libmx:libmx.dll
 0002:000001e0       __imp_mxDestroyArray       00000001800211e0     libmx:libmx.dll
 0002:000001e8       __imp_mxGetPr              00000001800211e8     libmx:libmx.dll
 0002:000001f0       __imp_mxIsChar             00000001800211f0     libmx:libmx.dll
 0002:000001f8       __imp_mxGetString_730      00000001800211f8     libmx:libmx.dll
 0002:00000200       __imp_mxGetScalar          0000000180021200     libmx:libmx.dll
 0002:00000208       __imp_mxCreateDoubleMatrix_730 0000000180021208     libmx:libmx.dll
 0002:00000210       __imp_mxCreateLogicalScalar 0000000180021210     libmx:libmx.dll
 0002:00000218       __imp_mxCreateDoubleScalar 0000000180021218     libmx:libmx.dll
 0002:00000220       __imp_mxSetField_730       0000000180021220     libmx:libmx.dll
 0002:00000228       __imp_mxIsEmpty            0000000180021228     libmx:libmx.dll
 0002:00000230       __imp_mxCreateStructArray_730 0000000180021230     libmx:libmx.dll
 0002:00000238       __imp_mxCreateCellArray_730 0000000180021238     libmx:libmx.dll
 0002:00000240       __imp_mxCreateCellMatrix_730 0000000180021240     libmx:libmx.dll
 0002:00000248       __imp_mxCreateStructMatrix_730 0000000180021248     libmx:libmx.dll
 0002:00000250       __imp_mxDuplicateArray     0000000180021250     libmx:libmx.dll
 0002:00000258       \177libmx_NULL_THUNK_DATA  0000000180021258     libmx:libmx.dll
 0002:00000260       __imp_utFree               0000000180021260     libut:libut.dll
 0002:00000268       __imp_utMalloc             0000000180021268     libut:libut.dll
 0002:00000270       \177libut_NULL_THUNK_DATA  0000000180021270     libut:libut.dll
 0002:00000278       __imp_sf_mex_destroy       0000000180021278     sf_runtime:sf_runtime.dll
 0002:00000280       __imp_sf_mex_duplicatearraysafe 0000000180021280     sf_runtime:sf_runtime.dll
 0002:00000288       __imp_sf_mex_createcellmatrix 0000000180021288     sf_runtime:sf_runtime.dll
 0002:00000290       __imp_sf_mex_addfield      0000000180021290     sf_runtime:sf_runtime.dll
 0002:00000298       __imp_sf_mex_create        0000000180021298     sf_runtime:sf_runtime.dll
 0002:000002a0       __imp_sf_mex_error_message 00000001800212a0     sf_runtime:sf_runtime.dll
 0002:000002a8       __imp_sf_set_rtw_dwork_info 00000001800212a8     sf_runtime:sf_runtime.dll
 0002:000002b0       __imp_sf_mark_chart_reusable_outputs 00000001800212b0     sf_runtime:sf_runtime.dll
 0002:000002b8       __imp_sf_mark_chart_expressionable_inputs 00000001800212b8     sf_runtime:sf_runtime.dll
 0002:000002c0       __imp_sf_update_buildInfo  00000001800212c0     sf_runtime:sf_runtime.dll
 0002:000002c8       __imp_sf_rtw_info_uint_prop 00000001800212c8     sf_runtime:sf_runtime.dll
 0002:000002d0       __imp_sf_is_chart_inlinable 00000001800212d0     sf_runtime:sf_runtime.dll
 0002:000002d8       __imp_sim_mode_is_external 00000001800212d8     sf_runtime:sf_runtime.dll
 0002:000002e0       __imp_ssGetOutputPortSignal_wrapper 00000001800212e0     sf_runtime:sf_runtime.dll
 0002:000002e8       __imp_ssGetInputPortSignal_wrapper 00000001800212e8     sf_runtime:sf_runtime.dll
 0002:000002f0       __imp_sf_mex_decode_encoded_mx_struct_array 00000001800212f0     sf_runtime:sf_runtime.dll
 0002:000002f8       __imp_sf_debug_reset_current_state_configuration 00000001800212f8     sf_runtime:sf_runtime.dll
 0002:00000300       __imp_sf_debug_set_instance_data_value_ptr 0000000180021300     sf_runtime:sf_runtime.dll
 0002:00000308       __imp_sf_debug_set_chart_data_compiled_props 0000000180021308     sf_runtime:sf_runtime.dll
 0002:00000310       __imp_cv_eml_init_fcn      0000000180021310     sf_runtime:sf_runtime.dll
 0002:00000318       __imp_sf_mex_createstruct  0000000180021318     sf_runtime:sf_runtime.dll
 0002:00000320       __imp_sf_debug_cv_init_trans 0000000180021320     sf_runtime:sf_runtime.dll
 0002:00000328       __imp_sf_debug_cv_init_state 0000000180021328     sf_runtime:sf_runtime.dll
 0002:00000330       __imp_sf_debug_cv_init_chart 0000000180021330     sf_runtime:sf_runtime.dll
 0002:00000338       __imp_sf_debug_set_chart_decomposition 0000000180021338     sf_runtime:sf_runtime.dll
 0002:00000340       __imp_sf_debug_set_chart_substate_count 0000000180021340     sf_runtime:sf_runtime.dll
 0002:00000348       __imp_sf_debug_set_chart_state_info 0000000180021348     sf_runtime:sf_runtime.dll
 0002:00000350       __imp_sf_debug_set_chart_data_props 0000000180021350     sf_runtime:sf_runtime.dll
 0002:00000358       __imp_sf_debug_set_chart_event_thresholds 0000000180021358     sf_runtime:sf_runtime.dll
 0002:00000360       __imp_sf_debug_set_chart_disable_implicit_casting 0000000180021360     sf_runtime:sf_runtime.dll
 0002:00000368       __imp_sf_debug_initialize_chart 0000000180021368     sf_runtime:sf_runtime.dll
 0002:00000370       __imp_sf_mex_dup           0000000180021370     sf_runtime:sf_runtime.dll
 0002:00000378       __imp_sf_mex_import        0000000180021378     sf_runtime:sf_runtime.dll
 0002:00000380       __imp_sf_get_time          0000000180021380     sf_runtime:sf_runtime.dll
 0002:00000388       __imp_sf_debug_check_for_state_inconsistency 0000000180021388     sf_runtime:sf_runtime.dll
 0002:00000390       __imp_sf_debug_symbol_scope_pop 0000000180021390     sf_runtime:sf_runtime.dll
 0002:00000398       __imp_eml_debug_line_call  0000000180021398     sf_runtime:sf_runtime.dll
 0002:000003a0       __imp_cv_eml_eval          00000001800213a0     sf_runtime:sf_runtime.dll
 0002:000003a8       __imp_sf_debug_symbol_scope_add_eml 00000001800213a8     sf_runtime:sf_runtime.dll
 0002:000003b0       __imp_sf_debug_symbol_scope_add_eml_importable 00000001800213b0     sf_runtime:sf_runtime.dll
 0002:000003b8       __imp_sf_debug_symbol_scope_push_eml 00000001800213b8     sf_runtime:sf_runtime.dll
 0002:000003c0       __imp_sf_debug_data_range_wrapper 00000001800213c0     sf_runtime:sf_runtime.dll
 0002:000003c8       __imp_sf_debug_call        00000001800213c8     sf_runtime:sf_runtime.dll
 0002:000003d0       __imp_sf_debug_symbol_scope_push 00000001800213d0     sf_runtime:sf_runtime.dll
 0002:000003d8       __imp_sf_mex_call_debug    00000001800213d8     sf_runtime:sf_runtime.dll
 0002:000003e0       __imp_sf_mex_setcell       00000001800213e0     sf_runtime:sf_runtime.dll
 0002:000003e8       __imp_sf_mex_getcell       00000001800213e8     sf_runtime:sf_runtime.dll
 0002:000003f0       __imp_sf_clear_rtw_identifier 00000001800213f0     sf_runtime:sf_runtime.dll
 0002:000003f8       __imp_cv_eml_init_relational 00000001800213f8     sf_runtime:sf_runtime.dll
 0002:00000400       __imp_cv_eml_init_for      0000000180021400     sf_runtime:sf_runtime.dll
 0002:00000408       __imp_cv_eml_init_if       0000000180021408     sf_runtime:sf_runtime.dll
 0002:00000410       __imp_sf_mex_listen_for_ctrl_c 0000000180021410     sf_runtime:sf_runtime.dll
 0002:00000418       __imp_sf_debug_eml_data_array_bounds_error_check 0000000180021418     sf_runtime:sf_runtime.dll
 0002:00000420       __imp_sf_debug_integer_check 0000000180021420     sf_runtime:sf_runtime.dll
 0002:00000428       __imp_cv_eval_relational   0000000180021428     sf_runtime:sf_runtime.dll
 0002:00000430       __imp_sf_mex_assign        0000000180021430     sf_runtime:sf_runtime.dll
 0002:00000438       __imp_sf_mex_emlrtNameCapturePostProcessR2012a 0000000180021438     sf_runtime:sf_runtime.dll
 0002:00000440       __imp_sf_debug_create_debug_instance_struct 0000000180021440     sf_runtime:sf_runtime.dll
 0002:00000448       __imp_sim_mode_is_rtw_gen  0000000180021448     sf_runtime:sf_runtime.dll
 0002:00000450       __imp_sf_debug_api         0000000180021450     sf_runtime:sf_runtime.dll
 0002:00000458       __imp_callMdlMethodAndReportError 0000000180021458     sf_runtime:sf_runtime.dll
 0002:00000460       __imp_call_sf_machine_global_method_dispatcher 0000000180021460     sf_runtime:sf_runtime.dll
 0002:00000468       __imp_sf_clear_error_manager_info 0000000180021468     sf_runtime:sf_runtime.dll
 0002:00000470       __imp_sf_mex_error_direct_call 0000000180021470     sf_runtime:sf_runtime.dll
 0002:00000478       __imp_cv_eml_init_script   0000000180021478     sf_runtime:sf_runtime.dll
 0002:00000480       __imp_sf_debug_terminate   0000000180021480     sf_runtime:sf_runtime.dll
 0002:00000488       __imp_sf_load_rtw_optimization_info 0000000180021488     sf_runtime:sf_runtime.dll
 0002:00000490       __imp_sf_debug_initialize_machine 0000000180021490     sf_runtime:sf_runtime.dll
 0002:00000498       __imp_sf_debug_set_machine_event_thresholds 0000000180021498     sf_runtime:sf_runtime.dll
 0002:000004a0       __imp_sf_debug_set_machine_data_thresholds 00000001800214a0     sf_runtime:sf_runtime.dll
 0002:000004a8       \177sf_runtime_NULL_THUNK_DATA 00000001800214a8     sf_runtime:sf_runtime.dll
 0002:000004b0       __xc_a                     00000001800214b0     MSVCRT:cinitexe.obj
 0002:000004b8       __xc_z                     00000001800214b8     MSVCRT:cinitexe.obj
 0002:000004c0       __xi_a                     00000001800214c0     MSVCRT:cinitexe.obj
 0002:000004d0       __xi_z                     00000001800214d0     MSVCRT:cinitexe.obj
 0002:000004e0       __real@41ebdaee88e00000    00000001800214e0     foswec_sfun.obj
 0002:000004e8       __real@41cf69fcac000000    00000001800214e8     foswec_sfun.obj
 0002:000004f0       __real@41d79aeec7000000    00000001800214f0     foswec_sfun.obj
 0002:000004f8       __real@41e93f32ee800000    00000001800214f8     foswec_sfun.obj
 0002:00000500       __real@41e012e10fc00000    0000000180021500     foswec_sfun.obj
 0002:00000508       __real@41bf561b21000000    0000000180021508     foswec_sfun.obj
 0002:00000510       __real@41ee80404f000000    0000000180021510     foswec_sfun.obj
 0002:00000518       __real@41d014764ac00000    0000000180021518     foswec_sfun.obj
 0002:00000520       __real@41edd8291ee00000    0000000180021520     foswec_sfun.obj
 0002:00000528       __real@41e30722c1000000    0000000180021528     foswec_sfun.obj
 0002:00000530       __real@41ddec0207c00000    0000000180021530     foswec_sfun.obj
 0002:00000538       __real@41941b78d0000000    0000000180021538     foswec_sfun.obj
 0002:00000540       __real@41eae7539ba00000    0000000180021540     foswec_sfun.obj
 0002:00000548       __real@41d7093739400000    0000000180021548     foswec_sfun.obj
 0002:00000550       __real@41ea9481fd800000    0000000180021550     foswec_sfun.obj
 0002:00000558       __real@41e15f1c92e00000    0000000180021558     foswec_sfun.obj
 0002:00000560       DYNAMIC_DIMENSION_DEF      0000000180021560     foswec_sfun_registry.obj
 0002:00000580       _ssBadLevel2InputAccessMsg 0000000180021580     foswec_sfun_registry.obj
 0002:00000710       _ssBadLevel2DirectFeedMsg  0000000180021710     foswec_sfun_registry.obj
 0002:00000850       _ssBadLevel2DirectFeedSolutionMsg 0000000180021850     foswec_sfun_registry.obj
 0002:000008c0       _ssBadLevel2ZeroDirectFeedMsg 00000001800218c0     foswec_sfun_registry.obj
 0002:00000a00       _ssBadLevel2ZeroDirectFeedMsg2 0000000180021a00     foswec_sfun_registry.obj
 0002:00000ae8       __real@0000000000000000    0000000180021ae8     foswec_sfun_registry.obj
 0002:00000af0       __real@bff0000000000000    0000000180021af0     foswec_sfun_registry.obj
 0002:00000af8       __real@41602cbca0000000    0000000180021af8     foswec_sfun_registry.obj
 0002:00000b00       __real@41e99aa26da00000    0000000180021b00     WECSim_Lib_sfun:WECSim_Lib_sfun.obj
 0002:00000b08       __real@41ba02823a000000    0000000180021b08     WECSim_Lib_sfun:WECSim_Lib_sfun.obj
 0002:00000b10       __real@41eab7a97fa00000    0000000180021b10     WECSim_Lib_sfun:WECSim_Lib_sfun.obj
 0002:00000b18       __real@4163e70360000000    0000000180021b18     WECSim_Lib_sfun:WECSim_Lib_sfun.obj
 0002:00000b20       __real@41e3c47bd3200000    0000000180021b20     WECSim_Lib_sfun:c8_WECSim_Lib.obj
 0002:00000b28       __real@41c5160099800000    0000000180021b28     WECSim_Lib_sfun:c8_WECSim_Lib.obj
 0002:00000b30       __real@41de5061bbc00000    0000000180021b30     WECSim_Lib_sfun:c8_WECSim_Lib.obj
 0002:00000b38       __real@41eafc86ecc00000    0000000180021b38     WECSim_Lib_sfun:c8_WECSim_Lib.obj
 0002:00000b40       __real@4008000000000000    0000000180021b40     WECSim_Lib_sfun:c8_WECSim_Lib.obj
 0002:00000b48       __real@4024000000000000    0000000180021b48     WECSim_Lib_sfun:c8_WECSim_Lib.obj
 0002:00000b50       __real@3ff0000000000000    0000000180021b50     WECSim_Lib_sfun:c8_WECSim_Lib.obj
 0002:00000b58       __real@4010000000000000    0000000180021b58     WECSim_Lib_sfun:c8_WECSim_Lib.obj
 0002:00000b60       __real@4000000000000000    0000000180021b60     WECSim_Lib_sfun:c8_WECSim_Lib.obj
 0002:00000b68       __real@41d0947a59400000    0000000180021b68     WECSim_Lib_sfun:c3_WECSim_Lib.obj
 0002:00000b70       __real@41aae4e5c8000000    0000000180021b70     WECSim_Lib_sfun:c3_WECSim_Lib.obj
 0002:00000b78       __real@41e9d87bf9800000    0000000180021b78     WECSim_Lib_sfun:c3_WECSim_Lib.obj
 0002:00000b80       __real@41c7e07673000000    0000000180021b80     WECSim_Lib_sfun:c3_WECSim_Lib.obj
 0002:00000b88       __real@408ad80000000000    0000000180021b88     WECSim_Lib_sfun:c3_WECSim_Lib.obj
 0002:00000b90       __real@4018000000000000    0000000180021b90     WECSim_Lib_sfun:c3_WECSim_Lib.obj
 0002:00000b98       __real@3e45798ee2308c3a    0000000180021b98     WECSim_Lib_sfun:c3_WECSim_Lib.obj
 0002:00000ba0       __real@4014000000000000    0000000180021ba0     WECSim_Lib_sfun:c3_WECSim_Lib.obj
 0002:00000ba8       _pDefaultRawDllMain        0000000180021ba8     MSVCRT:crtdll.obj
 0002:00000ba8       _pRawDllMain               0000000180021ba8     MSVCRT:crtdll.obj
 0002:00000bc0       ?ProcessDetach@NativeDll@<CrtImplementationDetails>@@0IB 0000000180021bc0     MSVCRT:tncleanup.obj
 0002:00000bc4       ?ProcessAttach@NativeDll@<CrtImplementationDetails>@@0IB 0000000180021bc4     MSVCRT:tncleanup.obj
 0002:00000bc8       ?ThreadAttach@NativeDll@<CrtImplementationDetails>@@0IB 0000000180021bc8     MSVCRT:tncleanup.obj
 0002:00000bcc       ?ThreadDetach@NativeDll@<CrtImplementationDetails>@@0IB 0000000180021bcc     MSVCRT:tncleanup.obj
 0002:00000bd0       ?ProcessVerifier@NativeDll@<CrtImplementationDetails>@@0IB 0000000180021bd0     MSVCRT:tncleanup.obj
 0002:00000bd8       __rtc_iaa                  0000000180021bd8     MSVCRT:_initsect_.obj
 0002:00000be0       __rtc_izz                  0000000180021be0     MSVCRT:_initsect_.obj
 0002:00000be8       __rtc_taa                  0000000180021be8     MSVCRT:_initsect_.obj
 0002:00000bf0       __rtc_tzz                  0000000180021bf0     MSVCRT:_initsect_.obj
 0002:00001634       __IMPORT_DESCRIPTOR_sf_runtime 0000000180022634     sf_runtime:sf_runtime.dll
 0002:00001648       __IMPORT_DESCRIPTOR_libmx  0000000180022648     libmx:libmx.dll
 0002:0000165c       __IMPORT_DESCRIPTOR_libmex 000000018002265c     libmex:libmex.dll
 0002:00001670       __IMPORT_DESCRIPTOR_MSVCR100 0000000180022670     MSVCRT:MSVCR100.dll
 0002:00001684       __IMPORT_DESCRIPTOR_KERNEL32 0000000180022684     kernel32:KERNEL32.dll
 0002:00001698       __IMPORT_DESCRIPTOR_libut  0000000180022698     libut:libut.dll
 0002:000016ac       __IMPORT_DESCRIPTOR_libmwmathutil 00000001800226ac     libmwmathutil:libmwmathutil.dll
 0002:000016c0       __NULL_IMPORT_DESCRIPTOR   00000001800226c0     sf_runtime:sf_runtime.dll
 0003:00000370       DYNAMIC_DIMENSION          0000000180024370     foswec_sfun_registry.obj
 0003:00008bf8       __security_cookie          000000018002cbf8     MSVCRT:gs_cookie.obj
 0003:00008c00       __security_cookie_complement 000000018002cc00     MSVCRT:gs_cookie.obj
 0003:00008c08       _fltused                   000000018002cc08     MSVCRT:dllsupp.obj
 0003:00008c10       __native_dllmain_reason    000000018002cc10     MSVCRT:natstart.obj
 0003:00008c14       __native_vcclrit_reason    000000018002cc14     MSVCRT:natstart.obj
 0003:00008cf8       sfGlobalDebugInstanceStruct 000000018002ccf8     foswec_sfun_registry.obj
 0003:000092c0       ?__type_info_root_node@@3U__type_info_node@@A 000000018002d2c0     MSVCRT:tncleanup.obj
 0003:000092d0       _foswecMachineNumber_      000000018002d2d0     <common>
 0003:000092d4       _WECSim_LibMachineNumber_  000000018002d2d4     <common>
 0003:000092d8       __native_startup_state     000000018002d2d8     <common>
 0003:000092e0       __native_startup_lock      000000018002d2e0     <common>
 0003:000092e8       __onexitend                000000018002d2e8     <common>
 0003:000092f0       __onexitbegin              000000018002d2f0     <common>
 0003:000092f8       __dyn_tls_init_callback    000000018002d2f8     <common>

 entry point at        0001:0001ec68

 Static symbols

 0001:00001ee0       getChartInfoFromSimStruct  0000000180002ee0 f   foswec_sfun_registry.obj
 0001:00003580       _ssFatalError              0000000180004580 f   foswec_sfun_registry.obj
 0001:00006630       ProcessMexSfunctionCmdLineCall 0000000180007630 f   foswec_sfun_registry.obj
 0001:00006800       sf_debug_api_wrapper       0000000180007800 f   foswec_sfun_registry.obj
 0001:00006850       mdlStart                   0000000180007850 f   foswec_sfun_registry.obj
 0001:00006880       mdl_start_processing       0000000180007880 f   foswec_sfun_registry.obj
 0001:00006940       mdlTerminate               0000000180007940 f   foswec_sfun_registry.obj
 0001:00006970       mdl_terminate_processing   0000000180007970 f   foswec_sfun_registry.obj
 0001:000069f0       mdlInitializeSampleTimes   00000001800079f0 f   foswec_sfun_registry.obj
 0001:00006a20       mdlZeroCrossings           0000000180007a20 f   foswec_sfun_registry.obj
 0001:00006a50       mdl_zeroCrossings_processing 0000000180007a50 f   foswec_sfun_registry.obj
 0001:00006a90       mdlDerivatives             0000000180007a90 f   foswec_sfun_registry.obj
 0001:00006ac0       mdl_derivatives_processing 0000000180007ac0 f   foswec_sfun_registry.obj
 0001:00006b10       mdlInitializeConditions    0000000180007b10 f   foswec_sfun_registry.obj
 0001:00006b40       mdl_initialize_conditions_processing 0000000180007b40 f   foswec_sfun_registry.obj
 0001:00006b90       mdlEnable                  0000000180007b90 f   foswec_sfun_registry.obj
 0001:00006bc0       mdl_enable_processing      0000000180007bc0 f   foswec_sfun_registry.obj
 0001:00006c00       mdlDisable                 0000000180007c00 f   foswec_sfun_registry.obj
 0001:00006c30       mdl_disable_processing     0000000180007c30 f   foswec_sfun_registry.obj
 0001:00006c70       mdlOutputs                 0000000180007c70 f   foswec_sfun_registry.obj
 0001:00006ca0       mdl_outputs_processing     0000000180007ca0 f   foswec_sfun_registry.obj
 0001:00006d80       mdl_outputs_continuous_legacy 0000000180007d80 f   foswec_sfun_registry.obj
 0001:00006e70       mdlGetTimeOfNextVarHit     0000000180007e70 f   foswec_sfun_registry.obj
 0001:00006ec0       _ProcessMexSfunctionCmdLineCall 0000000180007ec0 f   foswec_sfun_registry.obj
 0001:00007610       mdlSetWorkWidths           0000000180008610 f   foswec_sfun_registry.obj
 0001:00007640       mdlProcessParameters       0000000180008640 f   foswec_sfun_registry.obj
 0001:00007670       mdlInitializeSizes         0000000180008670 f   foswec_sfun_registry.obj
 0001:000076a0       mdlExtModeExec             00000001800086a0 f   foswec_sfun_registry.obj
 0001:000076d0       mdl_ext_mode_exec_processing 00000001800086d0 f   foswec_sfun_registry.obj
 0001:00007710       mdlRTW                     0000000180008710 f   foswec_sfun_registry.obj
 0001:00007750       _CreateSimStruct           0000000180008750 f   foswec_sfun_registry.obj
 0001:000078e0       _RegNumInputPortsCB        00000001800088e0 f   foswec_sfun_registry.obj
 0001:00007960       _RegNumOutputPortsCB       0000000180008960 f   foswec_sfun_registry.obj
 0001:00008b80       c8_info_helper             0000000180009b80 f   WECSim_Lib_sfun:c8_WECSim_Lib.obj
 0001:0000bc20       c8_emlrt_marshallOut       000000018000cc20 f   WECSim_Lib_sfun:c8_WECSim_Lib.obj
 0001:0000bcb0       c8_b_emlrt_marshallOut     000000018000ccb0 f   WECSim_Lib_sfun:c8_WECSim_Lib.obj
 0001:0000c470       mdlProcessParameters_c8_WECSim_Lib 000000018000d470 f   WECSim_Lib_sfun:c8_WECSim_Lib.obj
 0001:0000c550       initialize_params_c8_WECSim_Lib 000000018000d550 f   WECSim_Lib_sfun:c8_WECSim_Lib.obj
 0001:0000c560       mdlSetWorkWidths_c8_WECSim_Lib 000000018000d560 f   WECSim_Lib_sfun:c8_WECSim_Lib.obj
 0001:0000ca30       sf_get_instance_specialization 000000018000da30 f   WECSim_Lib_sfun:c8_WECSim_Lib.obj
 0001:0000ca40       mdlStart_c8_WECSim_Lib     000000018000da40 f   WECSim_Lib_sfun:c8_WECSim_Lib.obj
 0001:0000ccc0       init_dsm_address_info      000000018000dcc0 f   WECSim_Lib_sfun:c8_WECSim_Lib.obj
 0001:0000ccd0       init_simulink_io_address   000000018000dcd0 f   WECSim_Lib_sfun:c8_WECSim_Lib.obj
 0001:0000cd20       sf_get_sim_state_info_c8_WECSim_Lib 000000018000dd20 f   WECSim_Lib_sfun:c8_WECSim_Lib.obj
 0001:0000cde0       chart_debug_initialization 000000018000dde0 f   WECSim_Lib_sfun:c8_WECSim_Lib.obj
 0001:0000d510       init_script_number_translation 000000018000e510 f   WECSim_Lib_sfun:c8_WECSim_Lib.obj
 0001:0000d530       c8_sf_marshallOut          000000018000e530 f   WECSim_Lib_sfun:c8_WECSim_Lib.obj
 0001:0000d690       c8_sf_marshallIn           000000018000e690 f   WECSim_Lib_sfun:c8_WECSim_Lib.obj
 0001:0000d790       c8_b_emlrt_marshallIn      000000018000e790 f   WECSim_Lib_sfun:c8_WECSim_Lib.obj
 0001:0000d880       c8_b_sf_marshallOut        000000018000e880 f   WECSim_Lib_sfun:c8_WECSim_Lib.obj
 0001:0000d9e0       sf_opaque_initialize_c8_WECSim_Lib 000000018000e9e0 f   WECSim_Lib_sfun:c8_WECSim_Lib.obj
 0001:0000da20       initialize_c8_WECSim_Lib   000000018000ea20 f   WECSim_Lib_sfun:c8_WECSim_Lib.obj
 0001:0000da70       sf_opaque_enable_c8_WECSim_Lib 000000018000ea70 f   WECSim_Lib_sfun:c8_WECSim_Lib.obj
 0001:0000da90       enable_c8_WECSim_Lib       000000018000ea90 f   WECSim_Lib_sfun:c8_WECSim_Lib.obj
 0001:0000dac0       sf_opaque_disable_c8_WECSim_Lib 000000018000eac0 f   WECSim_Lib_sfun:c8_WECSim_Lib.obj
 0001:0000dae0       disable_c8_WECSim_Lib      000000018000eae0 f   WECSim_Lib_sfun:c8_WECSim_Lib.obj
 0001:0000db10       sf_opaque_gateway_c8_WECSim_Lib 000000018000eb10 f   WECSim_Lib_sfun:c8_WECSim_Lib.obj
 0001:0000db30       sf_gateway_c8_WECSim_Lib   000000018000eb30 f   WECSim_Lib_sfun:c8_WECSim_Lib.obj
 0001:0000e500       c8_c_sf_marshallOut        000000018000f500 f   WECSim_Lib_sfun:c8_WECSim_Lib.obj
 0001:0000e5b0       c8_b_sf_marshallIn         000000018000f5b0 f   WECSim_Lib_sfun:c8_WECSim_Lib.obj
 0001:0000e650       c8_c_emlrt_marshallIn      000000018000f650 f   WECSim_Lib_sfun:c8_WECSim_Lib.obj
 0001:0000e6e0       c8_mpower                  000000018000f6e0 f   WECSim_Lib_sfun:c8_WECSim_Lib.obj
 0001:0000e750       c8_eml_scalar_eg           000000018000f750 f   WECSim_Lib_sfun:c8_WECSim_Lib.obj
 0001:0000e760       c8_atan2                   000000018000f760 f   WECSim_Lib_sfun:c8_WECSim_Lib.obj
 0001:0000e7c0       c8_eml_error               000000018000f7c0 f   WECSim_Lib_sfun:c8_WECSim_Lib.obj
 0001:0000e9e0       sf_opaque_get_sim_state_c8_WECSim_Lib 000000018000f9e0 f   WECSim_Lib_sfun:c8_WECSim_Lib.obj
 0001:0000ea30       get_sim_state_c8_WECSim_Lib 000000018000fa30 f   WECSim_Lib_sfun:c8_WECSim_Lib.obj
 0001:0000ec10       sf_opaque_set_sim_state_c8_WECSim_Lib 000000018000fc10 f   WECSim_Lib_sfun:c8_WECSim_Lib.obj
 0001:0000ec60       set_sim_state_c8_WECSim_Lib 000000018000fc60 f   WECSim_Lib_sfun:c8_WECSim_Lib.obj
 0001:0000ed70       c8_update_debugger_state_c8_WECSim_Lib 000000018000fd70 f   WECSim_Lib_sfun:c8_WECSim_Lib.obj
 0001:0000ed80       c8_emlrt_marshallIn        000000018000fd80 f   WECSim_Lib_sfun:c8_WECSim_Lib.obj
 0001:0000edf0       c8_e_emlrt_marshallIn      000000018000fdf0 f   WECSim_Lib_sfun:c8_WECSim_Lib.obj
 0001:0000ee50       c8_f_emlrt_marshallIn      000000018000fe50 f   WECSim_Lib_sfun:c8_WECSim_Lib.obj
 0001:0000eee0       sf_opaque_terminate_c8_WECSim_Lib 000000018000fee0 f   WECSim_Lib_sfun:c8_WECSim_Lib.obj
 0001:0000ef80       finalize_c8_WECSim_Lib     000000018000ff80 f   WECSim_Lib_sfun:c8_WECSim_Lib.obj
 0001:0000ef90       sf_opaque_init_subchart_simstructs 000000018000ff90 f   WECSim_Lib_sfun:c8_WECSim_Lib.obj
 0001:0000efb0       initSimStructsc8_WECSim_Lib 000000018000ffb0 f   WECSim_Lib_sfun:c8_WECSim_Lib.obj
 0001:0000efc0       mdlRTW_c8_WECSim_Lib       000000018000ffc0 f   WECSim_Lib_sfun:c8_WECSim_Lib.obj
 0001:0000f070       c3_info_helper             0000000180010070 f   WECSim_Lib_sfun:c3_WECSim_Lib.obj
 0001:00016d00       c3_emlrt_marshallOut       0000000180017d00 f   WECSim_Lib_sfun:c3_WECSim_Lib.obj
 0001:00016d90       c3_b_emlrt_marshallOut     0000000180017d90 f   WECSim_Lib_sfun:c3_WECSim_Lib.obj
 0001:00017a80       mdlProcessParameters_c3_WECSim_Lib 0000000180018a80 f   WECSim_Lib_sfun:c3_WECSim_Lib.obj
 0001:00017b60       initialize_params_c3_WECSim_Lib 0000000180018b60 f   WECSim_Lib_sfun:c3_WECSim_Lib.obj
 0001:00017b70       mdlSetWorkWidths_c3_WECSim_Lib 0000000180018b70 f   WECSim_Lib_sfun:c3_WECSim_Lib.obj
 0001:00018100       sf_get_instance_specialization 0000000180019100 f   WECSim_Lib_sfun:c3_WECSim_Lib.obj
 0001:00018110       mdlStart_c3_WECSim_Lib     0000000180019110 f   WECSim_Lib_sfun:c3_WECSim_Lib.obj
 0001:00018390       init_dsm_address_info      0000000180019390 f   WECSim_Lib_sfun:c3_WECSim_Lib.obj
 0001:000183a0       init_simulink_io_address   00000001800193a0 f   WECSim_Lib_sfun:c3_WECSim_Lib.obj
 0001:00018470       sf_get_sim_state_info_c3_WECSim_Lib 0000000180019470 f   WECSim_Lib_sfun:c3_WECSim_Lib.obj
 0001:00018530       chart_debug_initialization 0000000180019530 f   WECSim_Lib_sfun:c3_WECSim_Lib.obj
 0001:000194c0       init_script_number_translation 000000018001a4c0 f   WECSim_Lib_sfun:c3_WECSim_Lib.obj
 0001:000194e0       c3_c_sf_marshallOut        000000018001a4e0 f   WECSim_Lib_sfun:c3_WECSim_Lib.obj
 0001:00019660       c3_c_sf_marshallIn         000000018001a660 f   WECSim_Lib_sfun:c3_WECSim_Lib.obj
 0001:00019770       c3_f_emlrt_marshallIn      000000018001a770 f   WECSim_Lib_sfun:c3_WECSim_Lib.obj
 0001:00019860       c3_d_sf_marshallOut        000000018001a860 f   WECSim_Lib_sfun:c3_WECSim_Lib.obj
 0001:000199f0       c3_e_sf_marshallOut        000000018001a9f0 f   WECSim_Lib_sfun:c3_WECSim_Lib.obj
 0001:00019ca0       c3_f_sf_marshallOut        000000018001aca0 f   WECSim_Lib_sfun:c3_WECSim_Lib.obj
 0001:00019f00       c3_g_sf_marshallOut        000000018001af00 f   WECSim_Lib_sfun:c3_WECSim_Lib.obj
 0001:00019fb0       sf_opaque_initialize_c3_WECSim_Lib 000000018001afb0 f   WECSim_Lib_sfun:c3_WECSim_Lib.obj
 0001:00019ff0       initialize_c3_WECSim_Lib   000000018001aff0 f   WECSim_Lib_sfun:c3_WECSim_Lib.obj
 0001:0001a050       sf_opaque_enable_c3_WECSim_Lib 000000018001b050 f   WECSim_Lib_sfun:c3_WECSim_Lib.obj
 0001:0001a070       enable_c3_WECSim_Lib       000000018001b070 f   WECSim_Lib_sfun:c3_WECSim_Lib.obj
 0001:0001a0a0       sf_opaque_disable_c3_WECSim_Lib 000000018001b0a0 f   WECSim_Lib_sfun:c3_WECSim_Lib.obj
 0001:0001a0c0       disable_c3_WECSim_Lib      000000018001b0c0 f   WECSim_Lib_sfun:c3_WECSim_Lib.obj
 0001:0001a0f0       sf_opaque_gateway_c3_WECSim_Lib 000000018001b0f0 f   WECSim_Lib_sfun:c3_WECSim_Lib.obj
 0001:0001a110       sf_gateway_c3_WECSim_Lib   000000018001b110 f   WECSim_Lib_sfun:c3_WECSim_Lib.obj
 0001:0001a4f0       c3_chartstep_c3_WECSim_Lib 000000018001b4f0 f   WECSim_Lib_sfun:c3_WECSim_Lib.obj
 0001:0001c4d0       c3_sf_marshallOut          000000018001d4d0 f   WECSim_Lib_sfun:c3_WECSim_Lib.obj
 0001:0001c5f0       c3_sf_marshallIn           000000018001d5f0 f   WECSim_Lib_sfun:c3_WECSim_Lib.obj
 0001:0001c690       c3_b_emlrt_marshallIn      000000018001d690 f   WECSim_Lib_sfun:c3_WECSim_Lib.obj
 0001:0001c750       c3_b_sf_marshallOut        000000018001d750 f   WECSim_Lib_sfun:c3_WECSim_Lib.obj
 0001:0001ca10       c3_b_sf_marshallIn         000000018001da10 f   WECSim_Lib_sfun:c3_WECSim_Lib.obj
 0001:0001cb90       c3_d_emlrt_marshallIn      000000018001db90 f   WECSim_Lib_sfun:c3_WECSim_Lib.obj
 0001:0001ccd0       c3_d_sf_marshallIn         000000018001dcd0 f   WECSim_Lib_sfun:c3_WECSim_Lib.obj
 0001:0001cd70       c3_g_emlrt_marshallIn      000000018001dd70 f   WECSim_Lib_sfun:c3_WECSim_Lib.obj
 0001:0001ce00       c3_e_sf_marshallIn         000000018001de00 f   WECSim_Lib_sfun:c3_WECSim_Lib.obj
 0001:0001cf20       c3_h_emlrt_marshallIn      000000018001df20 f   WECSim_Lib_sfun:c3_WECSim_Lib.obj
 0001:0001d030       c3_h_sf_marshallOut        000000018001e030 f   WECSim_Lib_sfun:c3_WECSim_Lib.obj
 0001:0001d260       c3_f_sf_marshallIn         000000018001e260 f   WECSim_Lib_sfun:c3_WECSim_Lib.obj
 0001:0001d3c0       c3_i_emlrt_marshallIn      000000018001e3c0 f   WECSim_Lib_sfun:c3_WECSim_Lib.obj
 0001:0001d4c0       c3_abs                     000000018001e4c0 f   WECSim_Lib_sfun:c3_WECSim_Lib.obj
 0001:0001d500       c3_trapz                   000000018001e500 f   WECSim_Lib_sfun:c3_WECSim_Lib.obj
 0001:0001db90       c3_intmin                  000000018001eb90 f   WECSim_Lib_sfun:c3_WECSim_Lib.obj
 0001:0001dbb0       c3_sum                     000000018001ebb0 f   WECSim_Lib_sfun:c3_WECSim_Lib.obj
 0001:0001dce0       c3_b_floor                 000000018001ece0 f   WECSim_Lib_sfun:c3_WECSim_Lib.obj
 0001:0001dd10       sf_opaque_get_sim_state_c3_WECSim_Lib 000000018001ed10 f   WECSim_Lib_sfun:c3_WECSim_Lib.obj
 0001:0001dd60       get_sim_state_c3_WECSim_Lib 000000018001ed60 f   WECSim_Lib_sfun:c3_WECSim_Lib.obj
 0001:0001e1d0       sf_opaque_set_sim_state_c3_WECSim_Lib 000000018001f1d0 f   WECSim_Lib_sfun:c3_WECSim_Lib.obj
 0001:0001e220       set_sim_state_c3_WECSim_Lib 000000018001f220 f   WECSim_Lib_sfun:c3_WECSim_Lib.obj
 0001:0001e410       c3_update_debugger_state_c3_WECSim_Lib 000000018001f410 f   WECSim_Lib_sfun:c3_WECSim_Lib.obj
 0001:0001e420       c3_emlrt_marshallIn        000000018001f420 f   WECSim_Lib_sfun:c3_WECSim_Lib.obj
 0001:0001e490       c3_c_emlrt_marshallIn      000000018001f490 f   WECSim_Lib_sfun:c3_WECSim_Lib.obj
 0001:0001e500       c3_e_emlrt_marshallIn      000000018001f500 f   WECSim_Lib_sfun:c3_WECSim_Lib.obj
 0001:0001e570       c3_k_emlrt_marshallIn      000000018001f570 f   WECSim_Lib_sfun:c3_WECSim_Lib.obj
 0001:0001e5d0       c3_l_emlrt_marshallIn      000000018001f5d0 f   WECSim_Lib_sfun:c3_WECSim_Lib.obj
 0001:0001e660       sf_opaque_terminate_c3_WECSim_Lib 000000018001f660 f   WECSim_Lib_sfun:c3_WECSim_Lib.obj
 0001:0001e700       finalize_c3_WECSim_Lib     000000018001f700 f   WECSim_Lib_sfun:c3_WECSim_Lib.obj
 0001:0001e710       sf_opaque_init_subchart_simstructs 000000018001f710 f   WECSim_Lib_sfun:c3_WECSim_Lib.obj
 0001:0001e730       initSimStructsc3_WECSim_Lib 000000018001f730 f   WECSim_Lib_sfun:c3_WECSim_Lib.obj
 0001:0001e740       mdlRTW_c3_WECSim_Lib       000000018001f740 f   WECSim_Lib_sfun:c3_WECSim_Lib.obj
 0001:0001e870       pre_c_init                 000000018001f870 f   MSVCRT:crtdll.obj
 0001:0001eb2c       __DllMainCRTStartup        000000018001fb2c f   MSVCRT:crtdll.obj
 0001:0001f3b0       __DllMainCRTStartup$filt$0 00000001800203b0 f   MSVCRT:crtdll.obj
 0001:0001f3e0       __DllMainCRTStartup$fin$1  00000001800203e0 f   MSVCRT:crtdll.obj
 0001:0001f3fa       _onexit$fin$0              00000001800203fa f   MSVCRT:atonexit.obj
 0001:0001f420       _IsNonwritableInCurrentImage$filt$0 0000000180020420 f   MSVCRT:pesect.obj
